target datalayout = "e-m:e-p270:32:32-p271:32:32-p272:64:64-i64:64-i128:128-f80:128-n8:16:32:64-S128"
target triple = "x86_64-pc-linux-gnu"

%union.AVRefStructOpaque = type { ptr }
%struct.RefCount = type { i64, %union.AVRefStructOpaque, ptr, ptr }

; Function Attrs: nounwind uwtable
define internal ptr @get_refcount(ptr noundef %0) #0 {
  %2 = alloca ptr, align 8
  %3 = alloca ptr, align 8
  store ptr %0, ptr %2, align 8, !tbaa !10
  call void @llvm.lifetime.start.p0(i64 8, ptr %3) #7
  %4 = load ptr, ptr %2, align 8, !tbaa !10
  %5 = getelementptr inbounds i8, ptr %4, i64 -32
  store ptr %5, ptr %3, align 8, !tbaa !12
  %6 = load ptr, ptr %3, align 8, !tbaa !12
  call void @llvm.lifetime.end.p0(i64 8, ptr %3) #7
  ret ptr %6
}

; Function Attrs: nounwind uwtable
define void @av_refstruct_unref(ptr noundef %0) #0 {
  %2 = alloca ptr, align 8
  %3 = alloca ptr, align 8
  %4 = alloca ptr, align 8
  %5 = alloca i32, align 4
  %6 = alloca ptr, align 8
  %7 = alloca i64, align 8
  %8 = alloca i64, align 8
  store ptr %0, ptr %2, align 8, !tbaa !10
  call void @llvm.lifetime.start.p0(i64 8, ptr %3) #7
  call void @llvm.lifetime.start.p0(i64 8, ptr %4) #7
  %9 = load ptr, ptr %2, align 8, !tbaa !10
  call void @llvm.memcpy.p0.p0.i64(ptr align 8 %3, ptr align 1 %9, i64 8, i1 false)
  %10 = load ptr, ptr %3, align 8, !tbaa !10
  %11 = icmp ne ptr %10, null
  br i1 %11, label %13, label %12

12:                                               ; preds = %1
  store i32 1, ptr %5, align 4
  br label %43

13:                                               ; preds = %1
  %14 = load ptr, ptr %2, align 8, !tbaa !10
  store ptr null, ptr %6, align 8, !tbaa !10
  call void @llvm.memcpy.p0.p0.i64(ptr align 1 %14, ptr align 8 %6, i64 8, i1 false)
  %15 = load ptr, ptr %3, align 8, !tbaa !10
  %16 = call ptr @get_refcount(ptr noundef %15)
  store ptr %16, ptr %4, align 8, !tbaa !12
  %17 = load ptr, ptr %4, align 8, !tbaa !12
  %18 = getelementptr inbounds nuw %struct.RefCount, ptr %17, i32 0, i32 0
  store i64 1, ptr %7, align 8, !tbaa !4
  %19 = load i64, ptr %7, align 8
  %20 = atomicrmw sub ptr %18, i64 %19 acq_rel, align 8
  store i64 %20, ptr %8, align 8
  %21 = load i64, ptr %8, align 8, !tbaa !4
  %22 = icmp eq i64 %21, 1
  br i1 %22, label %23, label %42

23:                                               ; preds = %13
  %24 = load ptr, ptr %4, align 8, !tbaa !12
  %25 = getelementptr inbounds nuw %struct.RefCount, ptr %24, i32 0, i32 2
  %26 = load ptr, ptr %25, align 8, !tbaa !16
  %27 = icmp ne ptr %26, null
  br i1 %27, label %28, label %37

28:                                               ; preds = %23
  %29 = load ptr, ptr %4, align 8, !tbaa !12
  %30 = getelementptr inbounds nuw %struct.RefCount, ptr %29, i32 0, i32 2
  %31 = load ptr, ptr %30, align 8, !tbaa !16
  %32 = load ptr, ptr %4, align 8, !tbaa !12
  %33 = getelementptr inbounds nuw %struct.RefCount, ptr %32, i32 0, i32 1
  %34 = load ptr, ptr %3, align 8, !tbaa !10
  %35 = getelementptr inbounds nuw %union.AVRefStructOpaque, ptr %33, i32 0, i32 0
  %36 = load ptr, ptr %35, align 8
  call void %31(ptr %36, ptr noundef %34)
  br label %37

37:                                               ; preds = %28, %23
  %38 = load ptr, ptr %4, align 8, !tbaa !12
  %39 = getelementptr inbounds nuw %struct.RefCount, ptr %38, i32 0, i32 3
  %40 = load ptr, ptr %39, align 8, !tbaa !18
  %41 = load ptr, ptr %4, align 8, !tbaa !12
  call void %40(ptr noundef %41)
  br label %42

42:                                               ; preds = %37, %13
  store i32 1, ptr %5, align 4
  br label %43

43:                                               ; preds = %42, %12
  call void @llvm.lifetime.end.p0(i64 8, ptr %4) #7
  call void @llvm.lifetime.end.p0(i64 8, ptr %3) #7
  ret void
}