; Function Attrs: nounwind uwtable
define void @av_refstruct_unref(ptr noundef captures(none) %0) local_unnamed_addr #0 {
  %.0.copyload10 = load ptr, ptr %0, align 1
  %.not = icmp eq ptr %.0.copyload10, null
  br i1 %.not, label %15, label %2

2:                                                ; preds = %1
  store ptr null, ptr %0, align 1
  %3 = getelementptr inbounds i8, ptr %.0.copyload10, i64 -32
  %4 = atomicrmw sub ptr %3, i64 1 acq_rel, align 8
  %5 = icmp eq i64 %4, 1
  br i1 %5, label %6, label %15

6:                                                ; preds = %2
  %7 = getelementptr inbounds i8, ptr %.0.copyload10, i64 -16
  %8 = load ptr, ptr %7, align 8, !tbaa !7
  %.not13 = icmp eq ptr %8, null
  br i1 %.not13, label %12, label %9

9:                                                ; preds = %6
  %10 = getelementptr inbounds i8, ptr %.0.copyload10, i64 -24
  %11 = load ptr, ptr %10, align 8
  tail call void %8(ptr %11, ptr noundef nonnull %.0.copyload10) #5
  br label %12

12:                                               ; preds = %9, %6
  %13 = getelementptr inbounds i8, ptr %.0.copyload10, i64 -8
  %14 = load ptr, ptr %13, align 8, !tbaa !10
  tail call void %14(ptr noundef nonnull %3) #5
  br label %15

15:                                               ; preds = %2, %12, %1
  ret void
}